target datalayout = "e-m:e-p270:32:32-p271:32:32-p272:64:64-i64:64-i128:128-f80:128-n8:16:32:64-S128"
target triple = "x86_64-pc-linux-gnu"

%struct.Path = type { i32, i32, ptr, ptr, ptr, i8, i8, i32, double, i32, double, double, ptr }
%struct.ForEachState = type { ptr, i32 }
%struct.List = type { i32, i32, i32, ptr, [0 x %union.ListCell] }
%union.ListCell = type { ptr }
%struct.TargetEntry = type { %struct.Expr, ptr, i16, ptr, i32, i32, i16, i8 }
%struct.Expr = type { i32 }
%struct.QualCost = type { double, double }
%struct.PathTarget = type { i32, ptr, ptr, %struct.QualCost, i32, i32 }

; Function Attrs: nounwind uwtable
define internal ptr @replace_nestloop_params(ptr noundef %0, ptr noundef %1) #0 {
  %3 = alloca ptr, align 8
  %4 = alloca ptr, align 8
  store ptr %0, ptr %3, align 8
  store ptr %1, ptr %4, align 8
  %5 = load ptr, ptr %4, align 8
  %6 = load ptr, ptr %3, align 8
  %7 = call ptr @replace_nestloop_params_mutator(ptr noundef %5, ptr noundef %6)
  ret ptr %7
}

; Function Attrs: nounwind uwtable
define internal ptr @build_path_tlist(ptr noundef %0, ptr noundef %1) #0 {
  %3 = alloca ptr, align 8
  %4 = alloca ptr, align 8
  %5 = alloca ptr, align 8
  %6 = alloca ptr, align 8
  %7 = alloca i32, align 4
  %8 = alloca ptr, align 8
  %9 = alloca %struct.ForEachState, align 8
  %10 = alloca ptr, align 8
  %11 = alloca ptr, align 8
  store ptr %0, ptr %3, align 8
  store ptr %1, ptr %4, align 8
  call void @llvm.lifetime.start.p0(i64 8, ptr %5) #10
  store ptr null, ptr %5, align 8
  call void @llvm.lifetime.start.p0(i64 8, ptr %6) #10
  %12 = load ptr, ptr %4, align 8
  %13 = getelementptr inbounds nuw %struct.Path, ptr %12, i32 0, i32 3
  %14 = load ptr, ptr %13, align 8
  %15 = getelementptr inbounds nuw %struct.PathTarget, ptr %14, i32 0, i32 2
  %16 = load ptr, ptr %15, align 8
  store ptr %16, ptr %6, align 8
  call void @llvm.lifetime.start.p0(i64 4, ptr %7) #10
  store i32 1, ptr %7, align 4
  call void @llvm.lifetime.start.p0(i64 8, ptr %8) #10
  call void @llvm.lifetime.start.p0(i64 16, ptr %9) #10
  %17 = getelementptr inbounds nuw %struct.ForEachState, ptr %9, i32 0, i32 0
  %18 = load ptr, ptr %4, align 8
  %19 = getelementptr inbounds nuw %struct.Path, ptr %18, i32 0, i32 3
  %20 = load ptr, ptr %19, align 8
  %21 = getelementptr inbounds nuw %struct.PathTarget, ptr %20, i32 0, i32 1
  %22 = load ptr, ptr %21, align 8
  store ptr %22, ptr %17, align 8
  %23 = getelementptr inbounds nuw %struct.ForEachState, ptr %9, i32 0, i32 1
  store i32 0, ptr %23, align 8
  %24 = getelementptr i8, ptr %9, i64 12
  call void @llvm.memset.p0.i64(ptr align 4 %24, i8 0, i64 4, i1 false)
  br label %25

25:                                               ; preds = %84, %2
  %26 = getelementptr inbounds nuw %struct.ForEachState, ptr %9, i32 0, i32 0
  %27 = load ptr, ptr %26, align 8
  %28 = icmp ne ptr %27, null
  br i1 %28, label %29, label %46

29:                                               ; preds = %25
  %30 = getelementptr inbounds nuw %struct.ForEachState, ptr %9, i32 0, i32 1
  %31 = load i32, ptr %30, align 8
  %32 = getelementptr inbounds nuw %struct.ForEachState, ptr %9, i32 0, i32 0
  %33 = load ptr, ptr %32, align 8
  %34 = getelementptr inbounds nuw %struct.List, ptr %33, i32 0, i32 1
  %35 = load i32, ptr %34, align 4
  %36 = icmp slt i32 %31, %35
  br i1 %36, label %37, label %46

37:                                               ; preds = %29
  %38 = getelementptr inbounds nuw %struct.ForEachState, ptr %9, i32 0, i32 0
  %39 = load ptr, ptr %38, align 8
  %40 = getelementptr inbounds nuw %struct.List, ptr %39, i32 0, i32 3
  %41 = load ptr, ptr %40, align 8
  %42 = getelementptr inbounds nuw %struct.ForEachState, ptr %9, i32 0, i32 1
  %43 = load i32, ptr %42, align 8
  %44 = sext i32 %43 to i64
  %45 = getelementptr inbounds %union.ListCell, ptr %41, i64 %44
  store ptr %45, ptr %8, align 8
  br label %47

46:                                               ; preds = %29, %25
  store ptr null, ptr %8, align 8
  br label %47

47:                                               ; preds = %46, %37
  %48 = phi i32 [ 1, %37 ], [ 0, %46 ]
  %49 = icmp ne i32 %48, 0
  br i1 %49, label %51, label %50

50:                                               ; preds = %47
  call void @llvm.lifetime.end.p0(i64 16, ptr %9) #10
  br label %88

51:                                               ; preds = %47
  call void @llvm.lifetime.start.p0(i64 8, ptr %10) #10
  %52 = load ptr, ptr %8, align 8
  %53 = load ptr, ptr %52, align 8
  store ptr %53, ptr %10, align 8
  call void @llvm.lifetime.start.p0(i64 8, ptr %11) #10
  %54 = load ptr, ptr %4, align 8
  %55 = getelementptr inbounds nuw %struct.Path, ptr %54, i32 0, i32 4
  %56 = load ptr, ptr %55, align 8
  %57 = icmp ne ptr %56, null
  br i1 %57, label %58, label %62

58:                                               ; preds = %51
  %59 = load ptr, ptr %3, align 8
  %60 = load ptr, ptr %10, align 8
  %61 = call ptr @replace_nestloop_params(ptr noundef %59, ptr noundef %60)
  store ptr %61, ptr %10, align 8
  br label %62

62:                                               ; preds = %58, %51
  %63 = load ptr, ptr %10, align 8
  %64 = load i32, ptr %7, align 4
  %65 = trunc i32 %64 to i16
  %66 = call ptr @makeTargetEntry(ptr noundef %63, i16 noundef signext %65, ptr noundef null, i1 noundef zeroext false)
  store ptr %66, ptr %11, align 8
  %67 = load ptr, ptr %6, align 8
  %68 = icmp ne ptr %67, null
  br i1 %68, label %69, label %78

69:                                               ; preds = %62
  %70 = load ptr, ptr %6, align 8
  %71 = load i32, ptr %7, align 4
  %72 = sub i32 %71, 1
  %73 = sext i32 %72 to i64
  %74 = getelementptr inbounds i32, ptr %70, i64 %73
  %75 = load i32, ptr %74, align 4
  %76 = load ptr, ptr %11, align 8
  %77 = getelementptr inbounds nuw %struct.TargetEntry, ptr %76, i32 0, i32 4
  store i32 %75, ptr %77, align 8
  br label %78

78:                                               ; preds = %69, %62
  %79 = load ptr, ptr %5, align 8
  %80 = load ptr, ptr %11, align 8
  %81 = call ptr @lappend(ptr noundef %79, ptr noundef %80)
  store ptr %81, ptr %5, align 8
  %82 = load i32, ptr %7, align 4
  %83 = add i32 %82, 1
  store i32 %83, ptr %7, align 4
  call void @llvm.lifetime.end.p0(i64 8, ptr %11) #10
  call void @llvm.lifetime.end.p0(i64 8, ptr %10) #10
  br label %84

84:                                               ; preds = %78
  %85 = getelementptr inbounds nuw %struct.ForEachState, ptr %9, i32 0, i32 1
  %86 = load i32, ptr %85, align 8
  %87 = add i32 %86, 1
  store i32 %87, ptr %85, align 8
  br label %25, !llvm.loop !26

88:                                               ; preds = %50
  %89 = load ptr, ptr %5, align 8
  call void @llvm.lifetime.end.p0(i64 8, ptr %8) #10
  call void @llvm.lifetime.end.p0(i64 4, ptr %7) #10
  call void @llvm.lifetime.end.p0(i64 8, ptr %6) #10
  call void @llvm.lifetime.end.p0(i64 8, ptr %5) #10
  ret ptr %89
}