; Function Attrs: nounwind uwtable
define internal fastcc ptr @build_path_tlist(ptr noundef %0, ptr noundef readonly captures(none) %1) unnamed_addr #0 {
  %3 = getelementptr inbounds nuw i8, ptr %1, i64 16
  %4 = load ptr, ptr %3, align 8
  %5 = getelementptr inbounds nuw i8, ptr %4, i64 16
  %6 = load ptr, ptr %5, align 8
  %.fr = freeze ptr %6
  %7 = getelementptr inbounds nuw i8, ptr %4, i64 8
  %8 = load ptr, ptr %7, align 8
  %9 = getelementptr inbounds nuw i8, ptr %8, i64 4
  %.not = icmp eq ptr %8, null
  br i1 %.not, label %._crit_edge, label %.lr.ph

.lr.ph:                                           ; preds = %2
  %10 = getelementptr inbounds nuw i8, ptr %8, i64 16
  %11 = getelementptr inbounds nuw i8, ptr %1, i64 24
  %.not26 = icmp eq ptr %.fr, null
  %12 = load i32, ptr %9, align 4
  %13 = icmp sgt i32 %12, 0
  br i1 %.not26, label %.lr.ph.split.us.split, label %.lr.ph.split.split

.lr.ph.split.us.split:                            ; preds = %.lr.ph
  br i1 %13, label %.lr.ph54, label %._crit_edge

.lr.ph54:                                         ; preds = %.lr.ph.split.us.split, %20
  %indvars.iv63 = phi i64 [ %indvars.iv.next64, %20 ], [ 0, %.lr.ph.split.us.split ]
  %.02030.us52 = phi i32 [ %24, %20 ], [ 1, %.lr.ph.split.us.split ]
  %.031.us51 = phi ptr [ %23, %20 ], [ null, %.lr.ph.split.us.split ]
  %14 = load ptr, ptr %10, align 8
  %15 = getelementptr inbounds nuw %union.ListCell, ptr %14, i64 %indvars.iv63
  %16 = load ptr, ptr %15, align 8
  %17 = load ptr, ptr %11, align 8
  %.not25.us = icmp eq ptr %17, null
  br i1 %.not25.us, label %20, label %18

18:                                               ; preds = %.lr.ph54
  %19 = tail call ptr @replace_nestloop_params_mutator(ptr noundef %16, ptr noundef %0)
  br label %20

20:                                               ; preds = %18, %.lr.ph54
  %.019.us = phi ptr [ %19, %18 ], [ %16, %.lr.ph54 ]
  %21 = trunc i32 %.02030.us52 to i16
  %22 = tail call ptr @makeTargetEntry(ptr noundef %.019.us, i16 noundef signext %21, ptr noundef null, i1 noundef zeroext false) #12
  %23 = tail call ptr @lappend(ptr noundef %.031.us51, ptr noundef %22) #12
  %24 = add nuw i32 %.02030.us52, 1
  %indvars.iv.next64 = add nuw nsw i64 %indvars.iv63, 1
  %25 = load i32, ptr %9, align 4
  %26 = sext i32 %25 to i64
  %27 = icmp slt i64 %indvars.iv.next64, %26
  br i1 %27, label %.lr.ph54, label %._crit_edge

.lr.ph.split.split:                               ; preds = %.lr.ph
  br i1 %13, label %.lr.ph47.preheader, label %._crit_edge

.lr.ph47.preheader:                               ; preds = %.lr.ph.split.split
  %invariant.gep = getelementptr i8, ptr %.fr, i64 -4
  br label %.lr.ph47

._crit_edge:                                      ; preds = %34, %20, %.lr.ph.split.us.split, %.lr.ph.split.split, %2
  %.0.lcssa = phi ptr [ null, %2 ], [ null, %.lr.ph.split.us.split ], [ null, %.lr.ph.split.split ], [ %23, %20 ], [ %39, %34 ]
  ret ptr %.0.lcssa

.lr.ph47:                                         ; preds = %.lr.ph47.preheader, %34
  %indvars.iv58 = phi i64 [ 1, %.lr.ph47.preheader ], [ %indvars.iv.next59, %34 ]
  %indvars.iv = phi i64 [ 0, %.lr.ph47.preheader ], [ %indvars.iv.next, %34 ]
  %.03144 = phi ptr [ null, %.lr.ph47.preheader ], [ %39, %34 ]
  %28 = load ptr, ptr %10, align 8
  %29 = getelementptr inbounds nuw %union.ListCell, ptr %28, i64 %indvars.iv
  %30 = load ptr, ptr %29, align 8
  %31 = load ptr, ptr %11, align 8
  %.not25 = icmp eq ptr %31, null
  br i1 %.not25, label %34, label %32

32:                                               ; preds = %.lr.ph47
  %33 = tail call ptr @replace_nestloop_params_mutator(ptr noundef %30, ptr noundef %0)
  br label %34

34:                                               ; preds = %32, %.lr.ph47
  %.019 = phi ptr [ %33, %32 ], [ %30, %.lr.ph47 ]
  %35 = trunc i64 %indvars.iv58 to i16
  %36 = tail call ptr @makeTargetEntry(ptr noundef %.019, i16 noundef signext %35, ptr noundef null, i1 noundef zeroext false) #12
  %gep = getelementptr i32, ptr %invariant.gep, i64 %indvars.iv58
  %37 = load i32, ptr %gep, align 4
  %38 = getelementptr inbounds nuw i8, ptr %36, i64 32
  store i32 %37, ptr %38, align 8
  %39 = tail call ptr @lappend(ptr noundef %.03144, ptr noundef %36) #12
  %indvars.iv.next59 = add nuw nsw i64 %indvars.iv58, 1
  %indvars.iv.next = add nuw nsw i64 %indvars.iv, 1
  %40 = load i32, ptr %9, align 4
  %41 = sext i32 %40 to i64
  %42 = icmp slt i64 %indvars.iv.next, %41
  br i1 %42, label %.lr.ph47, label %._crit_edge
}